target datalayout = "e-m:e-p270:32:32-p271:32:32-p272:64:64-i64:64-i128:128-f80:128-n8:16:32:64-S128"
target triple = "x86_64-pc-linux-gnu"

%union.ListCell = type { ptr }
%struct.List = type { i32, i32, i32, ptr, [0 x %union.ListCell] }
%struct.ForEachState = type { ptr, i32 }

; Function Attrs: nounwind uwtable
define dso_local zeroext i1 @list_member_oid(ptr noundef %0, i32 noundef %1) #0 {
  %3 = alloca i1, align 1
  %4 = alloca ptr, align 8
  %5 = alloca i32, align 4
  %6 = alloca ptr, align 8
  %7 = alloca %struct.ForEachState, align 8
  %8 = alloca i32, align 4
  store ptr %0, ptr %4, align 8
  store i32 %1, ptr %5, align 4
  call void @llvm.lifetime.start.p0(i64 8, ptr %6) #7
  call void @llvm.lifetime.start.p0(i64 16, ptr %7) #7
  %9 = getelementptr inbounds nuw %struct.ForEachState, ptr %7, i32 0, i32 0
  %10 = load ptr, ptr %4, align 8
  store ptr %10, ptr %9, align 8
  %11 = getelementptr inbounds nuw %struct.ForEachState, ptr %7, i32 0, i32 1
  store i32 0, ptr %11, align 8
  %12 = getelementptr i8, ptr %7, i64 12
  call void @llvm.memset.p0.i64(ptr align 4 %12, i8 0, i64 4, i1 false)
  br label %13

13:                                               ; preds = %46, %2
  %14 = getelementptr inbounds nuw %struct.ForEachState, ptr %7, i32 0, i32 0
  %15 = load ptr, ptr %14, align 8
  %16 = icmp ne ptr %15, null
  br i1 %16, label %17, label %34

17:                                               ; preds = %13
  %18 = getelementptr inbounds nuw %struct.ForEachState, ptr %7, i32 0, i32 1
  %19 = load i32, ptr %18, align 8
  %20 = getelementptr inbounds nuw %struct.ForEachState, ptr %7, i32 0, i32 0
  %21 = load ptr, ptr %20, align 8
  %22 = getelementptr inbounds nuw %struct.List, ptr %21, i32 0, i32 1
  %23 = load i32, ptr %22, align 4
  %24 = icmp slt i32 %19, %23
  br i1 %24, label %25, label %34

25:                                               ; preds = %17
  %26 = getelementptr inbounds nuw %struct.ForEachState, ptr %7, i32 0, i32 0
  %27 = load ptr, ptr %26, align 8
  %28 = getelementptr inbounds nuw %struct.List, ptr %27, i32 0, i32 3
  %29 = load ptr, ptr %28, align 8
  %30 = getelementptr inbounds nuw %struct.ForEachState, ptr %7, i32 0, i32 1
  %31 = load i32, ptr %30, align 8
  %32 = sext i32 %31 to i64
  %33 = getelementptr inbounds %union.ListCell, ptr %29, i64 %32
  store ptr %33, ptr %6, align 8
  br label %35

34:                                               ; preds = %17, %13
  store ptr null, ptr %6, align 8
  br label %35

35:                                               ; preds = %34, %25
  %36 = phi i32 [ 1, %25 ], [ 0, %34 ]
  %37 = icmp ne i32 %36, 0
  br i1 %37, label %39, label %38

38:                                               ; preds = %35
  store i32 2, ptr %8, align 4
  br label %50

39:                                               ; preds = %35
  %40 = load ptr, ptr %6, align 8
  %41 = load i32, ptr %40, align 8
  %42 = load i32, ptr %5, align 4
  %43 = icmp eq i32 %41, %42
  br i1 %43, label %44, label %45

44:                                               ; preds = %39
  store i1 true, ptr %3, align 1
  store i32 1, ptr %8, align 4
  br label %50

45:                                               ; preds = %39
  br label %46

46:                                               ; preds = %45
  %47 = getelementptr inbounds nuw %struct.ForEachState, ptr %7, i32 0, i32 1
  %48 = load i32, ptr %47, align 8
  %49 = add i32 %48, 1
  store i32 %49, ptr %47, align 8
  br label %13, !llvm.loop !8

50:                                               ; preds = %44, %38
  call void @llvm.lifetime.end.p0(i64 16, ptr %7) #7
  %51 = load i32, ptr %8, align 4
  switch i32 %51, label %53 [
    i32 2, label %52
  ]

52:                                               ; preds = %50
  store i1 false, ptr %3, align 1
  store i32 1, ptr %8, align 4
  br label %53

53:                                               ; preds = %52, %50
  call void @llvm.lifetime.end.p0(i64 8, ptr %6) #7
  %54 = load i1, ptr %3, align 1
  ret i1 %54
}

; Function Attrs: nounwind uwtable
define dso_local ptr @list_concat_unique_oid(ptr noundef %0, ptr noundef %1) #0 {
  %3 = alloca ptr, align 8
  %4 = alloca ptr, align 8
  %5 = alloca ptr, align 8
  %6 = alloca %struct.ForEachState, align 8
  store ptr %0, ptr %3, align 8
  store ptr %1, ptr %4, align 8
  call void @llvm.lifetime.start.p0(i64 8, ptr %5) #7
  call void @llvm.lifetime.start.p0(i64 16, ptr %6) #7
  %7 = getelementptr inbounds nuw %struct.ForEachState, ptr %6, i32 0, i32 0
  %8 = load ptr, ptr %4, align 8
  store ptr %8, ptr %7, align 8
  %9 = getelementptr inbounds nuw %struct.ForEachState, ptr %6, i32 0, i32 1
  store i32 0, ptr %9, align 8
  %10 = getelementptr i8, ptr %6, i64 12
  call void @llvm.memset.p0.i64(ptr align 4 %10, i8 0, i64 4, i1 false)
  br label %11

11:                                               ; preds = %48, %2
  %12 = getelementptr inbounds nuw %struct.ForEachState, ptr %6, i32 0, i32 0
  %13 = load ptr, ptr %12, align 8
  %14 = icmp ne ptr %13, null
  br i1 %14, label %15, label %32

15:                                               ; preds = %11
  %16 = getelementptr inbounds nuw %struct.ForEachState, ptr %6, i32 0, i32 1
  %17 = load i32, ptr %16, align 8
  %18 = getelementptr inbounds nuw %struct.ForEachState, ptr %6, i32 0, i32 0
  %19 = load ptr, ptr %18, align 8
  %20 = getelementptr inbounds nuw %struct.List, ptr %19, i32 0, i32 1
  %21 = load i32, ptr %20, align 4
  %22 = icmp slt i32 %17, %21
  br i1 %22, label %23, label %32

23:                                               ; preds = %15
  %24 = getelementptr inbounds nuw %struct.ForEachState, ptr %6, i32 0, i32 0
  %25 = load ptr, ptr %24, align 8
  %26 = getelementptr inbounds nuw %struct.List, ptr %25, i32 0, i32 3
  %27 = load ptr, ptr %26, align 8
  %28 = getelementptr inbounds nuw %struct.ForEachState, ptr %6, i32 0, i32 1
  %29 = load i32, ptr %28, align 8
  %30 = sext i32 %29 to i64
  %31 = getelementptr inbounds %union.ListCell, ptr %27, i64 %30
  store ptr %31, ptr %5, align 8
  br label %33

32:                                               ; preds = %15, %11
  store ptr null, ptr %5, align 8
  br label %33

33:                                               ; preds = %32, %23
  %34 = phi i32 [ 1, %23 ], [ 0, %32 ]
  %35 = icmp ne i32 %34, 0
  br i1 %35, label %37, label %36

36:                                               ; preds = %33
  call void @llvm.lifetime.end.p0(i64 16, ptr %6) #7
  br label %52

37:                                               ; preds = %33
  %38 = load ptr, ptr %3, align 8
  %39 = load ptr, ptr %5, align 8
  %40 = load i32, ptr %39, align 8
  %41 = call zeroext i1 @list_member_oid(ptr noundef %38, i32 noundef %40)
  br i1 %41, label %47, label %42

42:                                               ; preds = %37
  %43 = load ptr, ptr %3, align 8
  %44 = load ptr, ptr %5, align 8
  %45 = load i32, ptr %44, align 8
  %46 = call ptr @lappend_oid(ptr noundef %43, i32 noundef %45)
  store ptr %46, ptr %3, align 8
  br label %47

47:                                               ; preds = %42, %37
  br label %48

48:                                               ; preds = %47
  %49 = getelementptr inbounds nuw %struct.ForEachState, ptr %6, i32 0, i32 1
  %50 = load i32, ptr %49, align 8
  %51 = add i32 %50, 1
  store i32 %51, ptr %49, align 8
  br label %11, !llvm.loop !27

52:                                               ; preds = %36
  %53 = load ptr, ptr %3, align 8
  call void @llvm.lifetime.end.p0(i64 8, ptr %5) #7
  ret ptr %53
}